target datalayout = "e-m:e-p270:32:32-p271:32:32-p272:64:64-i64:64-f80:128-n8:16:32:64-S128"
target triple = "x86_64-pc-linux-gnu"

@.str = private unnamed_addr constant [4 x i8] c"%d\0A\00", align 1
@.str.1 = private unnamed_addr constant [6 x i8] c"%d %s\00", align 1
@.str.2 = private unnamed_addr constant [4 x i8] c"%c\0A\00", align 1

; Function Attrs: noinline nounwind uwtable
define dso_local void @main() #0 {
  %1 = alloca i32, align 4
  %2 = alloca i32, align 4
  %3 = alloca i32, align 4
  %4 = alloca i32, align 4
  %5 = alloca i32, align 4
  %6 = alloca i32, align 4
  %7 = alloca [999 x i32], align 16
  %8 = alloca [26 x i32], align 16
  %9 = alloca [999 x [999 x i8]], align 16
  store i32 0, i32* %1, align 4
  %10 = bitcast [26 x i32]* %8 to i8*
  call void @llvm.memset.p0i8.i64(i8* align 16 %10, i8 0, i64 104, i1 false)
  %11 = call i32 (i8*, ...) @__isoc99_scanf(i8* getelementptr inbounds ([4 x i8], [4 x i8]* @.str, i64 0, i64 0), i32* %2)
  store i32 0, i32* %3, align 4
  br label %12

12:                                               ; preds = %25, %0
  %13 = load i32, i32* %3, align 4
  %14 = load i32, i32* %2, align 4
  %15 = icmp slt i32 %13, %14
  br i1 %15, label %16, label %28

16:                                               ; preds = %12
  %17 = load i32, i32* %3, align 4
  %18 = sext i32 %17 to i64
  %19 = getelementptr inbounds [999 x i32], [999 x i32]* %7, i64 0, i64 %18
  %20 = load i32, i32* %3, align 4
  %21 = sext i32 %20 to i64
  %22 = getelementptr inbounds [999 x [999 x i8]], [999 x [999 x i8]]* %9, i64 0, i64 %21
  %23 = getelementptr inbounds [999 x i8], [999 x i8]* %22, i64 0, i64 0
  %24 = call i32 (i8*, ...) @__isoc99_scanf(i8* getelementptr inbounds ([6 x i8], [6 x i8]* @.str.1, i64 0, i64 0), i32* %19, i8* %23)
  br label %25

25:                                               ; preds = %16
  %26 = load i32, i32* %3, align 4
  %27 = add nsw i32 %26, 1
  store i32 %27, i32* %3, align 4
  br label %12

28:                                               ; preds = %12
  store i32 0, i32* %3, align 4
  br label %29

29:                                               ; preds = %62, %28
  %30 = load i32, i32* %3, align 4
  %31 = load i32, i32* %2, align 4
  %32 = icmp slt i32 %30, %31
  br i1 %32, label %33, label %65

33:                                               ; preds = %29
  %34 = load i32, i32* %3, align 4
  %35 = sext i32 %34 to i64
  %36 = getelementptr inbounds [999 x [999 x i8]], [999 x [999 x i8]]* %9, i64 0, i64 %35
  %37 = getelementptr inbounds [999 x i8], [999 x i8]* %36, i64 0, i64 0
  %38 = call i64 @strlen(i8* %37) #4
  %39 = trunc i64 %38 to i32
  store i32 %39, i32* %6, align 4
  store i32 0, i32* %4, align 4
  br label %40

40:                                               ; preds = %58, %33
  %41 = load i32, i32* %4, align 4
  %42 = load i32, i32* %6, align 4
  %43 = icmp slt i32 %41, %42
  br i1 %43, label %44, label %61

44:                                               ; preds = %40
  %45 = load i32, i32* %3, align 4
  %46 = sext i32 %45 to i64
  %47 = getelementptr inbounds [999 x [999 x i8]], [999 x [999 x i8]]* %9, i64 0, i64 %46
  %48 = load i32, i32* %4, align 4
  %49 = sext i32 %48 to i64
  %50 = getelementptr inbounds [999 x i8], [999 x i8]* %47, i64 0, i64 %49
  %51 = load i8, i8* %50, align 1
  %52 = sext i8 %51 to i32
  %53 = sub nsw i32 %52, 65
  %54 = sext i32 %53 to i64
  %55 = getelementptr inbounds [26 x i32], [26 x i32]* %8, i64 0, i64 %54
  %56 = load i32, i32* %55, align 4
  %57 = add nsw i32 %56, 1
  store i32 %57, i32* %55, align 4
  br label %58

58:                                               ; preds = %44
  %59 = load i32, i32* %4, align 4
  %60 = add nsw i32 %59, 1
  store i32 %60, i32* %4, align 4
  br label %40

61:                                               ; preds = %40
  br label %62

62:                                               ; preds = %61
  %63 = load i32, i32* %3, align 4
  %64 = add nsw i32 %63, 1
  store i32 %64, i32* %3, align 4
  br label %29

65:                                               ; preds = %29
  store i32 0, i32* %4, align 4
  br label %66

66:                                               ; preds = %82, %65
  %67 = load i32, i32* %4, align 4
  %68 = icmp slt i32 %67, 26
  br i1 %68, label %69, label %85

69:                                               ; preds = %66
  %70 = load i32, i32* %1, align 4
  %71 = load i32, i32* %4, align 4
  %72 = sext i32 %71 to i64
  %73 = getelementptr inbounds [26 x i32], [26 x i32]* %8, i64 0, i64 %72
  %74 = load i32, i32* %73, align 4
  %75 = icmp slt i32 %70, %74
  br i1 %75, label %76, label %81

76:                                               ; preds = %69
  %77 = load i32, i32* %4, align 4
  %78 = sext i32 %77 to i64
  %79 = getelementptr inbounds [26 x i32], [26 x i32]* %8, i64 0, i64 %78
  %80 = load i32, i32* %79, align 4
  store i32 %80, i32* %1, align 4
  br label %81

81:                                               ; preds = %76, %69
  br label %82

82:                                               ; preds = %81
  %83 = load i32, i32* %4, align 4
  %84 = add nsw i32 %83, 1
  store i32 %84, i32* %4, align 4
  br label %66

85:                                               ; preds = %66
  store i32 0, i32* %3, align 4
  br label %86

86:                                               ; preds = %101, %85
  %87 = load i32, i32* %3, align 4
  %88 = icmp slt i32 %87, 26
  br i1 %88, label %89, label %104

89:                                               ; preds = %86
  %90 = load i32, i32* %3, align 4
  %91 = sext i32 %90 to i64
  %92 = getelementptr inbounds [26 x i32], [26 x i32]* %8, i64 0, i64 %91
  %93 = load i32, i32* %92, align 4
  %94 = load i32, i32* %1, align 4
  %95 = icmp eq i32 %93, %94
  br i1 %95, label %96, label %100

96:                                               ; preds = %89
  %97 = load i32, i32* %3, align 4
  %98 = add nsw i32 %97, 65
  %99 = call i32 (i8*, ...) @printf(i8* getelementptr inbounds ([4 x i8], [4 x i8]* @.str.2, i64 0, i64 0), i32 %98)
  br label %104

100:                                              ; preds = %89
  br label %101

101:                                              ; preds = %100
  %102 = load i32, i32* %3, align 4
  %103 = add nsw i32 %102, 1
  store i32 %103, i32* %3, align 4
  br label %86

104:                                              ; preds = %96, %86
  %105 = load i32, i32* %1, align 4
  %106 = call i32 (i8*, ...) @printf(i8* getelementptr inbounds ([4 x i8], [4 x i8]* @.str, i64 0, i64 0), i32 %105)
  store i32 0, i32* %4, align 4
  br label %107

107:                                              ; preds = %145, %104
  %108 = load i32, i32* %4, align 4
  %109 = load i32, i32* %2, align 4
  %110 = icmp slt i32 %108, %109
  br i1 %110, label %111, label %148

111:                                              ; preds = %107
  %112 = load i32, i32* %4, align 4
  %113 = sext i32 %112 to i64
  %114 = getelementptr inbounds [999 x [999 x i8]], [999 x [999 x i8]]* %9, i64 0, i64 %113
  %115 = getelementptr inbounds [999 x i8], [999 x i8]* %114, i64 0, i64 0
  %116 = call i64 @strlen(i8* %115) #4
  %117 = trunc i64 %116 to i32
  store i32 %117, i32* %6, align 4
  store i32 0, i32* %5, align 4
  br label %118

118:                                              ; preds = %141, %111
  %119 = load i32, i32* %5, align 4
  %120 = load i32, i32* %6, align 4
  %121 = icmp slt i32 %119, %120
  br i1 %121, label %122, label %144

122:                                              ; preds = %118
  %123 = load i32, i32* %4, align 4
  %124 = sext i32 %123 to i64
  %125 = getelementptr inbounds [999 x [999 x i8]], [999 x [999 x i8]]* %9, i64 0, i64 %124
  %126 = load i32, i32* %5, align 4
  %127 = sext i32 %126 to i64
  %128 = getelementptr inbounds [999 x i8], [999 x i8]* %125, i64 0, i64 %127
  %129 = load i8, i8* %128, align 1
  %130 = sext i8 %129 to i32
  %131 = sub nsw i32 %130, 65
  %132 = load i32, i32* %3, align 4
  %133 = icmp eq i32 %131, %132
  br i1 %133, label %134, label %140

134:                                              ; preds = %122
  %135 = load i32, i32* %4, align 4
  %136 = sext i32 %135 to i64
  %137 = getelementptr inbounds [999 x i32], [999 x i32]* %7, i64 0, i64 %136
  %138 = load i32, i32* %137, align 4
  %139 = call i32 (i8*, ...) @printf(i8* getelementptr inbounds ([4 x i8], [4 x i8]* @.str, i64 0, i64 0), i32 %138)
  br label %140

140:                                              ; preds = %134, %122
  br label %141

141:                                              ; preds = %140
  %142 = load i32, i32* %5, align 4
  %143 = add nsw i32 %142, 1
  store i32 %143, i32* %5, align 4
  br label %118

144:                                              ; preds = %118
  br label %145

145:                                              ; preds = %144
  %146 = load i32, i32* %4, align 4
  %147 = add nsw i32 %146, 1
  store i32 %147, i32* %4, align 4
  br label %107

148:                                              ; preds = %107
  ret void
}